; Function Attrs: nounwind uwtable
define noalias noundef ptr @Saig_ManComputeSwitchProbs(ptr noundef %0, i32 noundef %1, i32 noundef %2, i32 noundef %3) local_unnamed_addr #2 {
  %5 = alloca %struct.Gia_ParSwi_t_, align 4
  %6 = tail call ptr @Gia_ManFromAigSwitch(ptr noundef %0) #17
  call void @llvm.lifetime.start.p0(i64 28, ptr nonnull %5) #17
  store i32 10, ptr %5, align 4, !tbaa !3
  %7 = getelementptr inbounds nuw i8, ptr %5, i64 4
  %8 = getelementptr inbounds nuw i8, ptr %5, i64 12
  store i32 0, ptr %8, align 4, !tbaa !10
  %9 = getelementptr inbounds nuw i8, ptr %5, i64 24
  store i32 0, ptr %9, align 4, !tbaa !13
  store i32 %1, ptr %7, align 4, !tbaa !8
  %10 = tail call ptr @Abc_FrameReadFlag(ptr noundef nonnull @.str.8) #17
  %.not.i = icmp eq ptr %10, null
  br i1 %.not.i, label %Gia_ManComputeSwitchProbs.exit, label %11

11:                                               ; preds = %4
  %12 = tail call ptr @Abc_FrameReadFlag(ptr noundef nonnull @.str.8) #17
  %13 = tail call i64 @strtol(ptr noundef nonnull captures(none) %12, ptr noundef null, i32 noundef 10) #17
  %14 = trunc i64 %13 to i32
  store i32 %14, ptr %7, align 4, !tbaa !8
  br label %Gia_ManComputeSwitchProbs.exit

Gia_ManComputeSwitchProbs.exit:                   ; preds = %4, %11
  %15 = getelementptr inbounds nuw i8, ptr %5, i64 20
  %16 = getelementptr inbounds nuw i8, ptr %5, i64 16
  %17 = getelementptr inbounds nuw i8, ptr %5, i64 8
  store i32 %2, ptr %17, align 4, !tbaa !9
  %.not12.i = icmp ne i32 %3, 0
  %..i = zext i1 %.not12.i to i32
  %not..not12.i = xor i1 %.not12.i, true
  %.14.i = zext i1 %not..not12.i to i32
  store i32 %..i, ptr %16, align 4, !tbaa !11
  store i32 %.14.i, ptr %15, align 4, !tbaa !12
  %18 = call noalias noundef ptr @Gia_ManSwiSimulate(ptr noundef %6, ptr noundef nonnull %5)
  call void @llvm.lifetime.end.p0(i64 28, ptr nonnull %5) #17
  %19 = getelementptr i8, ptr %0, i64 32
  %.val20 = load ptr, ptr %19, align 8, !tbaa !95
  %20 = getelementptr i8, ptr %.val20, i64 4
  %.val20.val = load i32, ptr %20, align 4, !tbaa !102
  %21 = call noalias dereferenceable_or_null(16) ptr @malloc(i64 noundef 16) #18
  %22 = add i32 %.val20.val, -1
  %or.cond.i.i = icmp ult i32 %22, 15
  %spec.store.select.i.i = select i1 %or.cond.i.i, i32 16, i32 %.val20.val
  %23 = getelementptr inbounds nuw i8, ptr %21, i64 4
  store i32 %spec.store.select.i.i, ptr %21, align 8, !tbaa !83
  %.not.i.i = icmp eq i32 %spec.store.select.i.i, 0
  br i1 %.not.i.i, label %Vec_IntAlloc.exit.thread.i, label %Vec_IntAlloc.exit.i

Vec_IntAlloc.exit.thread.i:                       ; preds = %Gia_ManComputeSwitchProbs.exit
  %24 = getelementptr inbounds nuw i8, ptr %21, i64 8
  store ptr null, ptr %24, align 8, !tbaa !84
  store i32 %.val20.val, ptr %23, align 4, !tbaa !43
  br label %Vec_IntStart.exit

Vec_IntAlloc.exit.i:                              ; preds = %Gia_ManComputeSwitchProbs.exit
  %25 = sext i32 %spec.store.select.i.i to i64
  %26 = shl nsw i64 %25, 2
  %27 = call noalias ptr @malloc(i64 noundef %26) #18
  %28 = getelementptr inbounds nuw i8, ptr %21, i64 8
  store ptr %27, ptr %28, align 8, !tbaa !84
  store i32 %.val20.val, ptr %23, align 4, !tbaa !43
  %.not.i23 = icmp eq ptr %27, null
  br i1 %.not.i23, label %Vec_IntStart.exit, label %29

29:                                               ; preds = %Vec_IntAlloc.exit.i
  %30 = sext i32 %.val20.val to i64
  %31 = shl nsw i64 %30, 2
  call void @llvm.memset.p0.i64(ptr nonnull align 4 %27, i8 0, i64 %31, i1 false)
  br label %Vec_IntStart.exit

Vec_IntStart.exit:                                ; preds = %Vec_IntAlloc.exit.thread.i, %Vec_IntAlloc.exit.i, %29
  %.val22 = phi ptr [ null, %Vec_IntAlloc.exit.thread.i ], [ null, %Vec_IntAlloc.exit.i ], [ %27, %29 ]
  %32 = icmp sgt i32 %.val20.val, 0
  br i1 %32, label %.lr.ph, label %.critedge

.lr.ph:                                           ; preds = %Vec_IntStart.exit
  %33 = getelementptr i8, ptr %.val20, i64 8
  %.val21 = load ptr, ptr %33, align 8, !tbaa !104
  %34 = getelementptr i8, ptr %18, i64 8
  %35 = zext nneg i32 %.val20.val to i64
  br label %36

36:                                               ; preds = %.lr.ph, %48
  %indvars.iv = phi i64 [ 0, %.lr.ph ], [ %indvars.iv.next, %48 ]
  %37 = getelementptr inbounds nuw ptr, ptr %.val21, i64 %indvars.iv
  %38 = load ptr, ptr %37, align 8, !tbaa !105
  %39 = icmp eq ptr %38, null
  br i1 %39, label %48, label %40

40:                                               ; preds = %36
  %41 = getelementptr inbounds nuw i8, ptr %38, i64 40
  %42 = load i32, ptr %41, align 8, !tbaa !106
  %43 = ashr i32 %42, 1
  %.val = load ptr, ptr %34, align 8, !tbaa !84
  %44 = sext i32 %43 to i64
  %45 = getelementptr inbounds i32, ptr %.val, i64 %44
  %46 = load i32, ptr %45, align 4, !tbaa !53
  %47 = getelementptr inbounds nuw i32, ptr %.val22, i64 %indvars.iv
  store i32 %46, ptr %47, align 4, !tbaa !53
  br label %48

48:                                               ; preds = %40, %36
  %indvars.iv.next = add nuw nsw i64 %indvars.iv, 1
  %49 = icmp samesign ult i64 %indvars.iv.next, %35
  br i1 %49, label %36, label %.critedge, !llvm.loop !107

.critedge:                                        ; preds = %48, %Vec_IntStart.exit
  %50 = getelementptr inbounds nuw i8, ptr %18, i64 8
  %51 = load ptr, ptr %50, align 8, !tbaa !84
  %.not.i24 = icmp eq ptr %51, null
  br i1 %.not.i24, label %Vec_IntFree.exit, label %52

52:                                               ; preds = %.critedge
  call void @free(ptr noundef nonnull %51) #17
  br label %Vec_IntFree.exit

Vec_IntFree.exit:                                 ; preds = %.critedge, %52
  call void @free(ptr noundef nonnull %18) #17
  call void @Gia_ManStop(ptr noundef %6) #17
  ret ptr %21
}